target datalayout = "e-m:e-p270:32:32-p271:32:32-p272:64:64-i64:64-i128:128-f80:128-n8:16:32:64-S128"
target triple = "x86_64-pc-linux-gnu"

%"class.llvm::StringRef" = type { ptr, i64 }
%"class.llvm::SmallVectorBase.4" = type { ptr, i32, i32 }
%"class.llvm::SmallVector.124" = type { %"class.llvm::SmallVectorImpl.125", %"struct.llvm::SmallVectorStorage.128" }
%"class.llvm::SmallVectorImpl.125" = type { %"class.llvm::SmallVectorTemplateBase.126" }
%"class.llvm::SmallVectorTemplateBase.126" = type { %"class.llvm::SmallVectorTemplateCommon.127" }
%"class.llvm::SmallVectorTemplateCommon.127" = type { %"class.llvm::SmallVectorBase.4" }
%"struct.llvm::SmallVectorStorage.128" = type { [24 x i8] }
%"class.llvm::SmallVectorImpl.528" = type { %"class.llvm::SmallVectorTemplateBase.529" }
%"class.llvm::SmallVectorTemplateBase.529" = type { %"class.llvm::SmallVectorTemplateCommon.530" }
%"class.llvm::SmallVectorTemplateCommon.530" = type { %"class.llvm::SmallVectorBase.4" }
%"class.llvm::SmallVector.540" = type { %"class.llvm::SmallVectorImpl.528", %"struct.llvm::SmallVectorStorage.541" }
%"struct.llvm::SmallVectorStorage.541" = type { [16 x i8] }
%"class.(anonymous namespace)::OffloadingActionBuilder::CudaActionBuilderBase" = type { %"class.(anonymous namespace)::OffloadingActionBuilder::DeviceActionBuilder.base", i8, i8, i8, i8, %"class.llvm::SmallVector.1212", %"class.llvm::SmallVector.124", ptr, i8, i8, i32, i32, %"class.llvm::StringRef" }
%"class.(anonymous namespace)::OffloadingActionBuilder::DeviceActionBuilder.base" = type <{ ptr, ptr, %"class.llvm::SmallVector.540", ptr, ptr, i32 }>
%"class.llvm::SmallVector.1212" = type { %"class.llvm::SmallVectorImpl.1213", %"struct.llvm::SmallVectorStorage.1216" }
%"class.llvm::SmallVectorImpl.1213" = type { %"class.llvm::SmallVectorTemplateBase.1214" }
%"class.llvm::SmallVectorTemplateBase.1214" = type { %"class.llvm::SmallVectorTemplateCommon.1215" }
%"class.llvm::SmallVectorTemplateCommon.1215" = type { %"class.llvm::SmallVectorBase.4" }
%"struct.llvm::SmallVectorStorage.1216" = type { [32 x i8] }
%"struct.(anonymous namespace)::OffloadingActionBuilder::CudaActionBuilderBase::TargetID" = type { ptr }
%class.anon.1226 = type { ptr, ptr }

; Function Attrs: mustprogress nounwind uwtable
define internal noundef ptr @_ZN4llvm25SmallVectorTemplateCommonIN12_GLOBAL__N_123OffloadingActionBuilder21CudaActionBuilderBase8TargetIDEvE5beginEv(ptr noundef nonnull align 8 dereferenceable(16) %0) #0 align 2 {
  %2 = alloca ptr, align 8
  store ptr %0, ptr %2, align 8
  %3 = load ptr, ptr %2, align 8
  %4 = getelementptr inbounds nuw %"class.llvm::SmallVectorBase.4", ptr %3, i32 0, i32 0
  %5 = load ptr, ptr %4, align 8
  ret ptr %5
}

; Function Attrs: mustprogress nounwind uwtable
define linkonce_odr hidden void @_ZN4llvm23SmallVectorTemplateBaseIPN5clang6driver6ActionELb1EE13destroy_rangeEPS4_S6_(ptr noundef %0, ptr noundef %1) #0 comdat align 2 {
  %3 = alloca ptr, align 8
  %4 = alloca ptr, align 8
  store ptr %0, ptr %3, align 8
  store ptr %1, ptr %4, align 8
  ret void
}

; Function Attrs: mustprogress nounwind uwtable
define linkonce_odr hidden noundef ptr @_ZN4llvm25SmallVectorTemplateCommonIPN5clang6driver6ActionEvE3endEv(ptr noundef nonnull align 8 dereferenceable(16) %0) #0 comdat align 2 {
  %2 = alloca ptr, align 8
  store ptr %0, ptr %2, align 8
  %3 = load ptr, ptr %2, align 8
  %4 = call noundef ptr @_ZN4llvm25SmallVectorTemplateCommonIPN5clang6driver6ActionEvE5beginEv(ptr noundef nonnull align 8 dereferenceable(16) %3)
  %5 = call noundef i64 @_ZNK4llvm15SmallVectorBaseIjE4sizeEv(ptr noundef nonnull align 8 dereferenceable(16) %3)
  %6 = getelementptr inbounds ptr, ptr %4, i64 %5
  ret ptr %6
}

; Function Attrs: mustprogress nounwind uwtable
define linkonce_odr hidden noundef ptr @_ZN4llvm25SmallVectorTemplateCommonIPN5clang6driver6ActionEvE5beginEv(ptr noundef nonnull align 8 dereferenceable(16) %0) #0 comdat align 2 {
  %2 = alloca ptr, align 8
  store ptr %0, ptr %2, align 8
  %3 = load ptr, ptr %2, align 8
  %4 = getelementptr inbounds nuw %"class.llvm::SmallVectorBase.4", ptr %3, i32 0, i32 0
  %5 = load ptr, ptr %4, align 8
  ret ptr %5
}

; Function Attrs: mustprogress nounwind uwtable
define internal noundef nonnull align 8 dereferenceable(8) ptr @_ZN4llvm25SmallVectorTemplateCommonIN12_GLOBAL__N_123OffloadingActionBuilder21CudaActionBuilderBase8TargetIDEvEixEm(ptr noundef nonnull align 8 dereferenceable(16) %0, i64 noundef %1) #0 align 2 {
  %3 = alloca ptr, align 8
  %4 = alloca i64, align 8
  store ptr %0, ptr %3, align 8
  store i64 %1, ptr %4, align 8
  %5 = load ptr, ptr %3, align 8
  %6 = call noundef ptr @_ZN4llvm25SmallVectorTemplateCommonIN12_GLOBAL__N_123OffloadingActionBuilder21CudaActionBuilderBase8TargetIDEvE5beginEv(ptr noundef nonnull align 8 dereferenceable(16) %5)
  %7 = load i64, ptr %4, align 8
  %8 = getelementptr inbounds %"struct.(anonymous namespace)::OffloadingActionBuilder::CudaActionBuilderBase::TargetID", ptr %6, i64 %7
  ret ptr %8
}

; Function Attrs: mustprogress nounwind uwtable
define linkonce_odr hidden noundef nonnull align 8 dereferenceable(8) ptr @_ZN4llvm25SmallVectorTemplateCommonIPN5clang6driver6ActionEvEixEm(ptr noundef nonnull align 8 dereferenceable(16) %0, i64 noundef %1) #0 comdat align 2 {
  %3 = alloca ptr, align 8
  %4 = alloca i64, align 8
  store ptr %0, ptr %3, align 8
  store i64 %1, ptr %4, align 8
  %5 = load ptr, ptr %3, align 8
  %6 = call noundef ptr @_ZN4llvm25SmallVectorTemplateCommonIPN5clang6driver6ActionEvE5beginEv(ptr noundef nonnull align 8 dereferenceable(16) %5)
  %7 = load i64, ptr %4, align 8
  %8 = getelementptr inbounds ptr, ptr %6, i64 %7
  ret ptr %8
}

; Function Attrs: mustprogress nounwind uwtable
define linkonce_odr hidden void @_ZN4llvm15SmallVectorImplIPN5clang6driver6ActionEE5clearEv(ptr noundef nonnull align 8 dereferenceable(16) %0) #0 comdat align 2 {
  %2 = alloca ptr, align 8
  store ptr %0, ptr %2, align 8
  %3 = load ptr, ptr %2, align 8
  %4 = call noundef ptr @_ZN4llvm25SmallVectorTemplateCommonIPN5clang6driver6ActionEvE5beginEv(ptr noundef nonnull align 8 dereferenceable(16) %3)
  %5 = call noundef ptr @_ZN4llvm25SmallVectorTemplateCommonIPN5clang6driver6ActionEvE3endEv(ptr noundef nonnull align 8 dereferenceable(16) %3)
  call void @_ZN4llvm23SmallVectorTemplateBaseIPN5clang6driver6ActionELb1EE13destroy_rangeEPS4_S6_(ptr noundef %4, ptr noundef %5)
  %6 = getelementptr inbounds nuw %"class.llvm::SmallVectorBase.4", ptr %3, i32 0, i32 1
  store i32 0, ptr %6, align 8
  ret void
}

; Function Attrs: mustprogress nounwind uwtable
define internal void @_ZN12_GLOBAL__N_123OffloadingActionBuilder21CudaActionBuilderBase8TargetIDC2EN5clang11OffloadArchE(ptr noundef nonnull align 8 dereferenceable(8) %0, i32 noundef %1) unnamed_addr #0 align 2 {
  %3 = alloca ptr, align 8
  %4 = alloca i32, align 4
  store ptr %0, ptr %3, align 8
  store i32 %1, ptr %4, align 4
  %5 = load ptr, ptr %3, align 8
  %6 = load i32, ptr %4, align 4
  %7 = call noundef ptr @_ZN5clang19OffloadArchToStringENS_11OffloadArchE(i32 noundef %6)
  %8 = getelementptr inbounds nuw %"struct.(anonymous namespace)::OffloadingActionBuilder::CudaActionBuilderBase::TargetID", ptr %5, i32 0, i32 0
  store ptr %7, ptr %8, align 8
  ret void
}

; Function Attrs: mustprogress nounwind uwtable
define internal void @_ZN12_GLOBAL__N_123OffloadingActionBuilder21CudaActionBuilderBase21appendTopLevelActionsERN4llvm11SmallVectorIPN5clang6driver6ActionELj3EEE(ptr noundef nonnull align 8 dereferenceable(200) %0, ptr noundef nonnull align 8 dereferenceable(40) %1) unnamed_addr #0 align 2 {
  %3 = alloca ptr, align 8
  %4 = alloca ptr, align 8
  %5 = alloca %class.anon.1226, align 8
  %6 = alloca %"struct.(anonymous namespace)::OffloadingActionBuilder::CudaActionBuilderBase::TargetID", align 8
  %7 = alloca i32, align 4
  %8 = alloca i32, align 4
  %9 = alloca %"struct.(anonymous namespace)::OffloadingActionBuilder::CudaActionBuilderBase::TargetID", align 8
  store ptr %0, ptr %3, align 8
  store ptr %1, ptr %4, align 8
  %10 = load ptr, ptr %3, align 8
  %11 = getelementptr inbounds nuw %class.anon.1226, ptr %5, i32 0, i32 0
  store ptr %10, ptr %11, align 8
  %12 = getelementptr inbounds nuw %class.anon.1226, ptr %5, i32 0, i32 1
  %13 = load ptr, ptr %4, align 8
  store ptr %13, ptr %12, align 8
  %14 = getelementptr inbounds nuw %"class.(anonymous namespace)::OffloadingActionBuilder::CudaActionBuilderBase", ptr %10, i32 0, i32 7
  %15 = load ptr, ptr %14, align 8
  %16 = icmp ne ptr %15, null
  br i1 %16, label %17, label %24

17:                                               ; preds = %2
  %18 = getelementptr inbounds nuw %"class.(anonymous namespace)::OffloadingActionBuilder::CudaActionBuilderBase", ptr %10, i32 0, i32 7
  %19 = load ptr, ptr %18, align 8
  call void @_ZN12_GLOBAL__N_123OffloadingActionBuilder21CudaActionBuilderBase8TargetIDC2EN5clang11OffloadArchE(ptr noundef nonnull align 8 dereferenceable(8) %6, i32 noundef 0)
  %20 = getelementptr inbounds nuw %"struct.(anonymous namespace)::OffloadingActionBuilder::CudaActionBuilderBase::TargetID", ptr %6, i32 0, i32 0
  %21 = load ptr, ptr %20, align 8
  call void @_ZZN12_GLOBAL__N_123OffloadingActionBuilder21CudaActionBuilderBase21appendTopLevelActionsERN4llvm11SmallVectorIPN5clang6driver6ActionELj3EEEENKUlS7_NS1_8TargetIDEE_clES7_SA_(ptr noundef nonnull align 8 dereferenceable(16) %5, ptr noundef %19, ptr %21)
  %22 = getelementptr inbounds nuw %"class.(anonymous namespace)::OffloadingActionBuilder::CudaActionBuilderBase", ptr %10, i32 0, i32 6
  call void @_ZN4llvm15SmallVectorImplIPN5clang6driver6ActionEE5clearEv(ptr noundef nonnull align 8 dereferenceable(16) %22)
  %23 = getelementptr inbounds nuw %"class.(anonymous namespace)::OffloadingActionBuilder::CudaActionBuilderBase", ptr %10, i32 0, i32 7
  store ptr null, ptr %23, align 8
  br label %53

24:                                               ; preds = %2
  %25 = getelementptr inbounds nuw %"class.(anonymous namespace)::OffloadingActionBuilder::CudaActionBuilderBase", ptr %10, i32 0, i32 6
  %26 = call noundef zeroext i1 @_ZNK4llvm15SmallVectorBaseIjE5emptyEv(ptr noundef nonnull align 8 dereferenceable(16) %25)
  br i1 %26, label %27, label %28

27:                                               ; preds = %24
  br label %53

28:                                               ; preds = %24
  store i32 0, ptr %7, align 4
  %29 = getelementptr inbounds nuw %"class.(anonymous namespace)::OffloadingActionBuilder::CudaActionBuilderBase", ptr %10, i32 0, i32 5
  %30 = call noundef i64 @_ZNK4llvm15SmallVectorBaseIjE4sizeEv(ptr noundef nonnull align 8 dereferenceable(16) %29)
  %31 = trunc i64 %30 to i32
  store i32 %31, ptr %8, align 4
  br label %32

32:                                               ; preds = %48, %28
  %33 = load i32, ptr %7, align 4
  %34 = load i32, ptr %8, align 4
  %35 = icmp ne i32 %33, %34
  br i1 %35, label %36, label %51

36:                                               ; preds = %32
  %37 = getelementptr inbounds nuw %"class.(anonymous namespace)::OffloadingActionBuilder::CudaActionBuilderBase", ptr %10, i32 0, i32 6
  %38 = load i32, ptr %7, align 4
  %39 = zext i32 %38 to i64
  %40 = call noundef nonnull align 8 dereferenceable(8) ptr @_ZN4llvm25SmallVectorTemplateCommonIPN5clang6driver6ActionEvEixEm(ptr noundef nonnull align 8 dereferenceable(16) %37, i64 noundef %39)
  %41 = load ptr, ptr %40, align 8
  %42 = getelementptr inbounds nuw %"class.(anonymous namespace)::OffloadingActionBuilder::CudaActionBuilderBase", ptr %10, i32 0, i32 5
  %43 = load i32, ptr %7, align 4
  %44 = zext i32 %43 to i64
  %45 = call noundef nonnull align 8 dereferenceable(8) ptr @_ZN4llvm25SmallVectorTemplateCommonIN12_GLOBAL__N_123OffloadingActionBuilder21CudaActionBuilderBase8TargetIDEvEixEm(ptr noundef nonnull align 8 dereferenceable(16) %42, i64 noundef %44)
  call void @llvm.memcpy.p0.p0.i64(ptr align 8 %9, ptr align 8 %45, i64 8, i1 false)
  %46 = getelementptr inbounds nuw %"struct.(anonymous namespace)::OffloadingActionBuilder::CudaActionBuilderBase::TargetID", ptr %9, i32 0, i32 0
  %47 = load ptr, ptr %46, align 8
  call void @_ZZN12_GLOBAL__N_123OffloadingActionBuilder21CudaActionBuilderBase21appendTopLevelActionsERN4llvm11SmallVectorIPN5clang6driver6ActionELj3EEEENKUlS7_NS1_8TargetIDEE_clES7_SA_(ptr noundef nonnull align 8 dereferenceable(16) %5, ptr noundef %41, ptr %47)
  br label %48

48:                                               ; preds = %36
  %49 = load i32, ptr %7, align 4
  %50 = add i32 %49, 1
  store i32 %50, ptr %7, align 4
  br label %32, !llvm.loop !133

51:                                               ; preds = %32
  %52 = getelementptr inbounds nuw %"class.(anonymous namespace)::OffloadingActionBuilder::CudaActionBuilderBase", ptr %10, i32 0, i32 6
  call void @_ZN4llvm15SmallVectorImplIPN5clang6driver6ActionEE5clearEv(ptr noundef nonnull align 8 dereferenceable(16) %52)
  br label %53

53:                                               ; preds = %51, %27, %17
  ret void
}