; Function Attrs: mustprogress nounwind uwtable
define internal void @_ZN12_GLOBAL__N_123OffloadingActionBuilder21CudaActionBuilderBase21appendTopLevelActionsERN4llvm11SmallVectorIPN5clang6driver6ActionELj3EEE(ptr noundef nonnull align 8 dereferenceable(200) %0, ptr noundef nonnull align 8 dereferenceable(40) %1) unnamed_addr #0 align 2 {
  %3 = alloca %class.anon.1226, align 8
  store ptr %0, ptr %3, align 8
  %4 = getelementptr inbounds nuw i8, ptr %3, i64 8
  store ptr %1, ptr %4, align 8
  %5 = getelementptr inbounds nuw i8, ptr %0, i64 160
  %6 = load ptr, ptr %5, align 8
  %.not = icmp eq ptr %6, null
  br i1 %.not, label %12, label %7

7:                                                ; preds = %2
  %8 = tail call noundef ptr @_ZN5clang19OffloadArchToStringENS_11OffloadArchE(i32 noundef 0) #30
  call fastcc void @_ZZN12_GLOBAL__N_123OffloadingActionBuilder21CudaActionBuilderBase21appendTopLevelActionsERN4llvm11SmallVectorIPN5clang6driver6ActionELj3EEEENKUlS7_NS1_8TargetIDEE_clES7_SA_(ptr noundef nonnull align 8 dereferenceable(16) %3, ptr noundef nonnull %6, ptr %8)
  %9 = getelementptr inbounds nuw i8, ptr %0, i64 120
  %10 = tail call noundef i64 @_ZNK4llvm15SmallVectorBaseIjE4sizeEv(ptr noundef nonnull align 8 dereferenceable(16) %9) #30
  %11 = getelementptr inbounds i8, ptr %0, i64 128
  store i32 0, ptr %11, align 8
  store ptr null, ptr %5, align 8
  br label %26

12:                                               ; preds = %2
  %13 = getelementptr inbounds nuw i8, ptr %0, i64 120
  %14 = tail call noundef zeroext i1 @_ZNK4llvm15SmallVectorBaseIjE5emptyEv(ptr noundef nonnull align 8 dereferenceable(16) %13) #30
  br i1 %14, label %26, label %15

15:                                               ; preds = %12
  %16 = getelementptr inbounds nuw i8, ptr %0, i64 72
  %17 = tail call noundef i64 @_ZNK4llvm15SmallVectorBaseIjE4sizeEv(ptr noundef nonnull align 8 dereferenceable(16) %16) #30
  %18 = and i64 %17, 4294967295
  %.not78 = icmp eq i64 %18, 0
  br i1 %.not78, label %._crit_edge, label %.lr.ph.preheader

.lr.ph.preheader:                                 ; preds = %15
  %19 = and i64 %17, 4294967295
  br label %.lr.ph

.lr.ph:                                           ; preds = %.lr.ph.preheader, %.lr.ph
  %indvars.iv = phi i64 [ 0, %.lr.ph.preheader ], [ %indvars.iv.next, %.lr.ph ]
  %20 = load ptr, ptr %13, align 8
  %21 = getelementptr inbounds ptr, ptr %20, i64 %indvars.iv
  %22 = load ptr, ptr %21, align 8
  %.val = load ptr, ptr %16, align 8
  %23 = getelementptr inbounds %"struct.(anonymous namespace)::OffloadingActionBuilder::CudaActionBuilderBase::TargetID", ptr %.val, i64 %indvars.iv
  %.sroa.0.0.copyload = load ptr, ptr %23, align 8
  call fastcc void @_ZZN12_GLOBAL__N_123OffloadingActionBuilder21CudaActionBuilderBase21appendTopLevelActionsERN4llvm11SmallVectorIPN5clang6driver6ActionELj3EEEENKUlS7_NS1_8TargetIDEE_clES7_SA_(ptr noundef nonnull align 8 dereferenceable(16) %3, ptr noundef %22, ptr %.sroa.0.0.copyload)
  %indvars.iv.next = add nuw nsw i64 %indvars.iv, 1
  %.not7 = icmp eq i64 %indvars.iv.next, %19
  br i1 %.not7, label %._crit_edge, label %.lr.ph, !llvm.loop !1719

._crit_edge:                                      ; preds = %.lr.ph, %15
  %24 = tail call noundef i64 @_ZNK4llvm15SmallVectorBaseIjE4sizeEv(ptr noundef nonnull align 8 dereferenceable(16) %13) #30
  %25 = getelementptr inbounds i8, ptr %0, i64 128
  store i32 0, ptr %25, align 8
  br label %26

26:                                               ; preds = %12, %._crit_edge, %7
  ret void
}